; ModuleID = 'source-C-CXX/29/1054.c'
source_filename = "source-C-CXX/29/1054.c"
target datalayout = "e-m:e-p270:32:32-p271:32:32-p272:64:64-i64:64-f80:128-n8:16:32:64-S128"
target triple = "x86_64-pc-linux-gnu"

@.str = private unnamed_addr constant [3 x i8] c"%d\00", align 1

; Function Attrs: nofree nounwind sspstrong uwtable
define dso_local i32 @main() local_unnamed_addr #0 {
  %1 = alloca i32, align 4
  %2 = bitcast i32* %1 to i8*
  call void @llvm.lifetime.start.p0i8(i64 4, i8* nonnull %2) #5
  %3 = call i32 (i8*, ...) @__isoc99_scanf(i8* getelementptr inbounds ([3 x i8], [3 x i8]* @.str, i64 0, i64 0), i32* nonnull %1)
  %4 = load i32, i32* %1, align 4, !tbaa !5
  %5 = call i32 @llvm.smax.i32(i32 %4, i32 1)
  %6 = icmp ult i32 %5, 8
  br i1 %6, label %45, label %7

7:                                                ; preds = %0
  %8 = and i32 %5, 2147483640
  %9 = or i32 %8, 1
  br label %10

10:                                               ; preds = %10, %7
  %11 = phi i32 [ 0, %7 ], [ %38, %10 ]
  %12 = phi <4 x i32> [ zeroinitializer, %7 ], [ %36, %10 ]
  %13 = phi <4 x i32> [ zeroinitializer, %7 ], [ %37, %10 ]
  %14 = phi <4 x i32> [ <i32 1, i32 2, i32 3, i32 4>, %7 ], [ %39, %10 ]
  %15 = add <4 x i32> %14, <i32 4, i32 4, i32 4, i32 4>
  %16 = urem <4 x i32> %14, <i32 10, i32 10, i32 10, i32 10>
  %17 = urem <4 x i32> %15, <i32 10, i32 10, i32 10, i32 10>
  %18 = urem <4 x i32> %14, <i32 7, i32 7, i32 7, i32 7>
  %19 = urem <4 x i32> %15, <i32 7, i32 7, i32 7, i32 7>
  %20 = mul nsw <4 x i32> %14, %14
  %21 = mul nsw <4 x i32> %15, %15
  %22 = add nsw <4 x i32> %14, <i32 -70, i32 -70, i32 -70, i32 -70>
  %23 = add <4 x i32> %14, <i32 -66, i32 -66, i32 -66, i32 -66>
  %24 = icmp ult <4 x i32> %22, <i32 10, i32 10, i32 10, i32 10>
  %25 = icmp ult <4 x i32> %23, <i32 10, i32 10, i32 10, i32 10>
  %26 = icmp eq <4 x i32> %16, <i32 7, i32 7, i32 7, i32 7>
  %27 = icmp eq <4 x i32> %17, <i32 7, i32 7, i32 7, i32 7>
  %28 = or <4 x i1> %24, %26
  %29 = or <4 x i1> %25, %27
  %30 = icmp eq <4 x i32> %18, zeroinitializer
  %31 = icmp eq <4 x i32> %19, zeroinitializer
  %32 = select <4 x i1> %28, <4 x i1> <i1 true, i1 true, i1 true, i1 true>, <4 x i1> %30
  %33 = select <4 x i1> %29, <4 x i1> <i1 true, i1 true, i1 true, i1 true>, <4 x i1> %31
  %34 = select <4 x i1> %32, <4 x i32> zeroinitializer, <4 x i32> %20
  %35 = select <4 x i1> %33, <4 x i32> zeroinitializer, <4 x i32> %21
  %36 = add <4 x i32> %34, %12
  %37 = add <4 x i32> %35, %13
  %38 = add nuw i32 %11, 8
  %39 = add <4 x i32> %14, <i32 8, i32 8, i32 8, i32 8>
  %40 = icmp eq i32 %38, %8
  br i1 %40, label %41, label %10, !llvm.loop !9

41:                                               ; preds = %10
  %42 = add <4 x i32> %37, %36
  %43 = call i32 @llvm.vector.reduce.add.v4i32(<4 x i32> %42)
  %44 = icmp eq i32 %5, %8
  br i1 %44, label %64, label %45

45:                                               ; preds = %0, %41
  %46 = phi i32 [ 0, %0 ], [ %43, %41 ]
  %47 = phi i32 [ 1, %0 ], [ %9, %41 ]
  br label %48

48:                                               ; preds = %45, %48
  %49 = phi i32 [ %61, %48 ], [ %46, %45 ]
  %50 = phi i32 [ %62, %48 ], [ %47, %45 ]
  %51 = urem i32 %50, 10
  %52 = urem i32 %50, 7
  %53 = mul nsw i32 %50, %50
  %54 = add nsw i32 %50, -70
  %55 = icmp ult i32 %54, 10
  %56 = icmp eq i32 %51, 7
  %57 = or i1 %55, %56
  %58 = icmp eq i32 %52, 0
  %59 = select i1 %57, i1 true, i1 %58
  %60 = select i1 %59, i32 0, i32 %53
  %61 = add nuw nsw i32 %60, %49
  %62 = add nuw i32 %50, 1
  %63 = icmp eq i32 %50, %5
  br i1 %63, label %64, label %48, !llvm.loop !12

64:                                               ; preds = %48, %41
  %65 = phi i32 [ %43, %41 ], [ %61, %48 ]
  %66 = call i32 (i8*, ...) @printf(i8* nonnull dereferenceable(1) getelementptr inbounds ([3 x i8], [3 x i8]* @.str, i64 0, i64 0), i32 %65)
  call void @llvm.lifetime.end.p0i8(i64 4, i8* nonnull %2) #5
  ret i32 0
}

; Function Attrs: argmemonly mustprogress nofree nosync nounwind willreturn
declare void @llvm.lifetime.start.p0i8(i64 immarg, i8* nocapture) #1

; Function Attrs: nofree nounwind
declare noundef i32 @__isoc99_scanf(i8* nocapture noundef readonly, ...) local_unnamed_addr #2

; Function Attrs: nofree nounwind
declare noundef i32 @printf(i8* nocapture noundef readonly, ...) local_unnamed_addr #2

; Function Attrs: argmemonly mustprogress nofree nosync nounwind willreturn
declare void @llvm.lifetime.end.p0i8(i64 immarg, i8* nocapture) #1

; Function Attrs: nofree nosync nounwind readnone speculatable willreturn
declare i32 @llvm.smax.i32(i32, i32) #3

; Function Attrs: nofree nosync nounwind readnone willreturn
declare i32 @llvm.vector.reduce.add.v4i32(<4 x i32>) #4


!llvm.module.flags = !{!0, !1, !2, !3}
!llvm.ident = !{!4}

!0 = !{i32 1, !"wchar_size", i32 4}
!1 = !{i32 7, !"PIC Level", i32 2}
!2 = !{i32 7, !"PIE Level", i32 2}
!3 = !{i32 7, !"uwtable", i32 1}
!4 = !{!"clang version 13.0.0"}
!5 = !{!6, !6, i64 0}
!6 = !{!"int", !7, i64 0}
!7 = !{!"omnipotent char", !8, i64 0}
!8 = !{!"Simple C/C++ TBAA"}
!9 = distinct !{!9, !10, !11}
!10 = !{!"llvm.loop.mustprogress"}
!11 = !{!"llvm.loop.isvectorized", i32 1}
!12 = distinct !{!12, !10, !13, !11}
!13 = !{!"llvm.loop.unroll.runtime.disable"}
